target datalayout = "e-m:e-p270:32:32-p271:32:32-p272:64:64-i64:64-i128:128-f80:128-n8:16:32:64-S128"
target triple = "x86_64-pc-linux-gnu"

%struct.PaUtilHostApiRepresentation = type { %struct.PaUtilPrivatePaFrontHostApiInfo, %struct.PaHostApiInfo, ptr, ptr, ptr, ptr }
%struct.PaUtilPrivatePaFrontHostApiInfo = type { i64 }
%struct.PaHostApiInfo = type { i32, i32, ptr, i32, i32, i32 }

@initializationCount_ = internal global i32 0, align 4
@hostApisCount_ = internal global i32 0, align 4
@hostApis_ = internal global ptr null, align 8

; Function Attrs: nounwind uwtable
define i32 @Pa_HostApiTypeIdToHostApiIndex(i32 noundef %0) #0 {
  %2 = alloca i32, align 4
  %3 = alloca i32, align 4
  %4 = alloca i32, align 4
  store i32 %0, ptr %2, align 4
  %5 = load i32, ptr @initializationCount_, align 4
  %6 = icmp ne i32 %5, 0
  br i1 %6, label %8, label %7

7:                                                ; preds = %1
  store i32 -10000, ptr %3, align 4
  br label %31

8:                                                ; preds = %1
  store i32 -9979, ptr %3, align 4
  store i32 0, ptr %4, align 4
  br label %9

9:                                                ; preds = %27, %8
  %10 = load i32, ptr %4, align 4
  %11 = load i32, ptr @hostApisCount_, align 4
  %12 = icmp slt i32 %10, %11
  br i1 %12, label %13, label %30

13:                                               ; preds = %9
  %14 = load ptr, ptr @hostApis_, align 8
  %15 = load i32, ptr %4, align 4
  %16 = sext i32 %15 to i64
  %17 = getelementptr inbounds ptr, ptr %14, i64 %16
  %18 = load ptr, ptr %17, align 8
  %19 = getelementptr inbounds nuw %struct.PaUtilHostApiRepresentation, ptr %18, i32 0, i32 1
  %20 = getelementptr inbounds nuw %struct.PaHostApiInfo, ptr %19, i32 0, i32 1
  %21 = load i32, ptr %20, align 4
  %22 = load i32, ptr %2, align 4
  %23 = icmp eq i32 %21, %22
  br i1 %23, label %24, label %26

24:                                               ; preds = %13
  %25 = load i32, ptr %4, align 4
  store i32 %25, ptr %3, align 4
  br label %30

26:                                               ; preds = %13
  br label %27

27:                                               ; preds = %26
  %28 = load i32, ptr %4, align 4
  %29 = add nsw i32 %28, 1
  store i32 %29, ptr %4, align 4
  br label %9, !llvm.loop !8

30:                                               ; preds = %24, %9
  br label %31

31:                                               ; preds = %30, %7
  %32 = load i32, ptr %3, align 4
  ret i32 %32
}