; Function Attrs: nofree norecurse nosync nounwind memory(read, inaccessiblemem: none) uwtable
define i32 @Pa_HostApiTypeIdToHostApiIndex(i32 noundef %0) local_unnamed_addr #5 {
  %2 = load i32, ptr @initializationCount_, align 4
  %.not = icmp eq i32 %2, 0
  br i1 %.not, label %.loopexit, label %.preheader

.preheader:                                       ; preds = %1
  %3 = load i32, ptr @hostApisCount_, align 4
  %4 = icmp sgt i32 %3, 0
  br i1 %4, label %.lr.ph, label %.loopexit

.lr.ph:                                           ; preds = %.preheader
  %5 = load ptr, ptr @hostApis_, align 8
  %wide.trip.count = zext nneg i32 %3 to i64
  br label %6

6:                                                ; preds = %.lr.ph, %12
  %indvars.iv = phi i64 [ 0, %.lr.ph ], [ %indvars.iv.next, %12 ]
  %7 = getelementptr inbounds ptr, ptr %5, i64 %indvars.iv
  %8 = load ptr, ptr %7, align 8
  %9 = getelementptr inbounds i8, ptr %8, i64 12
  %10 = load i32, ptr %9, align 4
  %11 = icmp eq i32 %10, %0
  br i1 %11, label %.loopexit.loopexit.split.loop.exit, label %12

12:                                               ; preds = %6
  %indvars.iv.next = add nuw nsw i64 %indvars.iv, 1
  %exitcond.not = icmp eq i64 %indvars.iv.next, %wide.trip.count
  br i1 %exitcond.not, label %.loopexit, label %6, !llvm.loop !10

.loopexit.loopexit.split.loop.exit:               ; preds = %6
  %13 = trunc nuw nsw i64 %indvars.iv to i32
  br label %.loopexit

.loopexit:                                        ; preds = %12, %.loopexit.loopexit.split.loop.exit, %.preheader, %1
  %.06 = phi i32 [ -10000, %1 ], [ -9979, %.preheader ], [ %13, %.loopexit.loopexit.split.loop.exit ], [ -9979, %12 ]
  ret i32 %.06
}